target datalayout = "e-m:e-p270:32:32-p271:32:32-p272:64:64-i64:64-i128:128-f80:128-n8:16:32:64-S128"
target triple = "x86_64-pc-linux-gnu"

%class.LogTagSet = type { ptr, i64, [5 x i32], [4 x i8], %class.LogOutputList, %class.LogDecorators, ptr }
%class.LogOutputList = type <{ [6 x ptr], i32, [4 x i8] }>
%class.LogDecorators = type { i32 }
%class.CgroupV1Controller = type { %class.CgroupController, ptr, ptr, i8, ptr }
%class.CgroupController = type { ptr }
%class.CgroupV1MemoryController = type <{ %class.CgroupMemoryController, %class.CgroupV1Controller, i8, [7 x i8] }>
%class.CgroupMemoryController = type { ptr }

@.str.11 = private unnamed_addr constant [13 x i8] c"/memory.stat\00", align 1
@.str.15 = private unnamed_addr constant [29 x i8] c"/memory.memsw.limit_in_bytes\00", align 1
@.str.16 = private unnamed_addr constant [33 x i8] c"Memory and Swap Limit failed: %d\00", align 1
@.str.17 = private unnamed_addr constant [30 x i8] c"Memory and Swap Limit is: %lu\00", align 1
@.str.18 = private unnamed_addr constant [53 x i8] c"Non-Hierarchical Memory and Swap Limit is: Unlimited\00", align 1
@.str.19 = private unnamed_addr constant [25 x i8] c"hierarchical_memsw_limit\00", align 1
@.str.20 = private unnamed_addr constant [43 x i8] c"Hierarchical Memory and Swap Limit is: %lu\00", align 1
@.str.21 = private unnamed_addr constant [49 x i8] c"Hierarchical Memory and Swap Limit is: Unlimited\00", align 1
@_ZN16LogTagSetMappingILN6LogTag4typeE105ELS1_25ELS1_0ELS1_0ELS1_0ELS1_0EE7_tagsetE = linkonce_odr hidden global %class.LogTagSet zeroinitializer, comdat, align 8

; Function Attrs: mustprogress nounwind uwtable
define linkonce_odr hidden noundef zeroext i1 @_ZNK13LogOutputList8is_levelEN8LogLevel4typeE(ptr noundef nonnull align 8 dereferenceable(52) %0, i32 noundef %1) #1 comdat align 2 {
  %3 = alloca ptr, align 8
  %4 = alloca i32, align 4
  store ptr %0, ptr %3, align 8
  store i32 %1, ptr %4, align 4
  %5 = load ptr, ptr %3, align 8
  %6 = getelementptr inbounds %class.LogOutputList, ptr %5, i32 0, i32 0
  %7 = load i32, ptr %4, align 4
  %8 = zext i32 %7 to i64
  %9 = getelementptr inbounds [6 x ptr], ptr %6, i64 0, i64 %8
  %10 = load volatile ptr, ptr %9, align 8
  %11 = icmp ne ptr %10, null
  ret i1 %11
}

; Function Attrs: mustprogress nounwind uwtable
define linkonce_odr hidden noundef zeroext i1 @_ZNK9LogTagSet8is_levelEN8LogLevel4typeE(ptr noundef nonnull align 8 dereferenceable(112) %0, i32 noundef %1) #1 comdat align 2 {
  %3 = alloca ptr, align 8
  %4 = alloca i32, align 4
  store ptr %0, ptr %3, align 8
  store i32 %1, ptr %4, align 4
  %5 = load ptr, ptr %3, align 8
  %6 = getelementptr inbounds %class.LogTagSet, ptr %5, i32 0, i32 4
  %7 = load i32, ptr %4, align 4
  %8 = call noundef zeroext i1 @_ZNK13LogOutputList8is_levelEN8LogLevel4typeE(ptr noundef nonnull align 8 dereferenceable(52) %6, i32 noundef %7)
  ret i1 %8
}

; Function Attrs: mustprogress nounwind uwtable
define linkonce_odr hidden noundef nonnull align 8 dereferenceable(112) ptr @_ZN16LogTagSetMappingILN6LogTag4typeE105ELS1_25ELS1_0ELS1_0ELS1_0ELS1_0EE6tagsetEv() #1 comdat align 2 {
  ret ptr @_ZN16LogTagSetMappingILN6LogTag4typeE105ELS1_25ELS1_0ELS1_0ELS1_0ELS1_0EE7_tagsetE
}

; Function Attrs: mustprogress nounwind uwtable
define linkonce_odr hidden noundef zeroext i1 @_ZN24CgroupV1MemoryController15is_hierarchicalEv(ptr noundef nonnull align 8 dereferenceable(56) %0) #1 comdat align 2 {
  %2 = alloca ptr, align 8
  store ptr %0, ptr %2, align 8
  %3 = load ptr, ptr %2, align 8
  %4 = getelementptr inbounds %class.CgroupV1MemoryController, ptr %3, i32 0, i32 2
  %5 = load i8, ptr %4, align 8
  %6 = trunc i8 %5 to i1
  ret i1 %6
}

; Function Attrs: mustprogress nounwind uwtable
define linkonce_odr hidden noundef zeroext i1 @_ZN7LogImplILN6LogTag4typeE105ELS1_25ELS1_0ELS1_0ELS1_0ELS1_0EE8is_levelEN8LogLevel4typeE(i32 noundef %0) #1 comdat align 2 {
  %2 = alloca i32, align 4
  store i32 %0, ptr %2, align 4
  %3 = call noundef nonnull align 8 dereferenceable(112) ptr @_ZN16LogTagSetMappingILN6LogTag4typeE105ELS1_25ELS1_0ELS1_0ELS1_0ELS1_0EE6tagsetEv()
  %4 = load i32, ptr %2, align 4
  %5 = call noundef zeroext i1 @_ZNK9LogTagSet8is_levelEN8LogLevel4typeE(ptr noundef nonnull align 8 dereferenceable(112) %3, i32 noundef %4)
  ret i1 %5
}

; Function Attrs: mustprogress nounwind uwtable
define linkonce_odr hidden noundef ptr @_ZN24CgroupV1MemoryController6readerEv(ptr noundef nonnull align 8 dereferenceable(56) %0) #1 comdat align 2 {
  %2 = alloca ptr, align 8
  store ptr %0, ptr %2, align 8
  %3 = load ptr, ptr %2, align 8
  %4 = getelementptr inbounds %class.CgroupV1MemoryController, ptr %3, i32 0, i32 1
  ret ptr %4
}

; Function Attrs: mustprogress nounwind uwtable
define hidden noundef i64 @_ZN24CgroupV1MemoryController13read_mem_swapEm(ptr noundef nonnull align 8 dereferenceable(56) %0, i64 noundef %1) #1 align 2 {
  %3 = alloca i64, align 8
  %4 = alloca ptr, align 8
  %5 = alloca i64, align 8
  %6 = alloca i64, align 8
  %7 = alloca i64, align 8
  %8 = alloca i8, align 1
  %9 = alloca ptr, align 8
  %10 = alloca i8, align 1
  store ptr %0, ptr %4, align 8
  store i64 %1, ptr %5, align 8
  %11 = load ptr, ptr %4, align 8
  %12 = call noundef ptr @_ZN24CgroupV1MemoryController6readerEv(ptr noundef nonnull align 8 dereferenceable(56) %11)
  %13 = call noundef zeroext i1 @_ZN16CgroupController11read_numberEPKcPm(ptr noundef nonnull align 8 dereferenceable(8) %12, ptr noundef @.str.15, ptr noundef %7)
  %14 = zext i1 %13 to i8
  store i8 %14, ptr %8, align 1
  %15 = load i8, ptr %8, align 1
  %16 = trunc i8 %15 to i1
  br i1 %16, label %22, label %17

17:                                               ; preds = %2
  %18 = call noundef zeroext i1 @_ZN7LogImplILN6LogTag4typeE105ELS1_25ELS1_0ELS1_0ELS1_0ELS1_0EE8is_levelEN8LogLevel4typeE(i32 noundef 1)
  br i1 %18, label %20, label %19

19:                                               ; preds = %17
  br label %21

20:                                               ; preds = %17
  call void (ptr, ...) @_ZN7LogImplILN6LogTag4typeE105ELS1_25ELS1_0ELS1_0ELS1_0ELS1_0EE5writeILN8LogLevel4typeE1EEEvPKcz(ptr noundef @.str.16, i32 noundef -2)
  br label %21

21:                                               ; preds = %20, %19
  store i64 -2, ptr %3, align 8
  br label %65

22:                                               ; preds = %2
  %23 = call noundef zeroext i1 @_ZN7LogImplILN6LogTag4typeE105ELS1_25ELS1_0ELS1_0ELS1_0ELS1_0EE8is_levelEN8LogLevel4typeE(i32 noundef 1)
  br i1 %23, label %25, label %24

24:                                               ; preds = %22
  br label %27

25:                                               ; preds = %22
  %26 = load i64, ptr %7, align 8
  call void (ptr, ...) @_ZN7LogImplILN6LogTag4typeE105ELS1_25ELS1_0ELS1_0ELS1_0ELS1_0EE5writeILN8LogLevel4typeE1EEEvPKcz(ptr noundef @.str.17, i64 noundef %26)
  br label %27

27:                                               ; preds = %25, %24
  %28 = load i64, ptr %7, align 8
  %29 = load i64, ptr %5, align 8
  %30 = icmp uge i64 %28, %29
  br i1 %30, label %31, label %63

31:                                               ; preds = %27
  %32 = call noundef zeroext i1 @_ZN7LogImplILN6LogTag4typeE105ELS1_25ELS1_0ELS1_0ELS1_0ELS1_0EE8is_levelEN8LogLevel4typeE(i32 noundef 1)
  br i1 %32, label %34, label %33

33:                                               ; preds = %31
  br label %35

34:                                               ; preds = %31
  call void (ptr, ...) @_ZN7LogImplILN6LogTag4typeE105ELS1_25ELS1_0ELS1_0ELS1_0ELS1_0EE5writeILN8LogLevel4typeE1EEEvPKcz(ptr noundef @.str.18)
  br label %35

35:                                               ; preds = %34, %33
  %36 = call noundef zeroext i1 @_ZN24CgroupV1MemoryController15is_hierarchicalEv(ptr noundef nonnull align 8 dereferenceable(56) %11)
  br i1 %36, label %37, label %62

37:                                               ; preds = %35
  store ptr @.str.19, ptr %9, align 8
  %38 = call noundef ptr @_ZN24CgroupV1MemoryController6readerEv(ptr noundef nonnull align 8 dereferenceable(56) %11)
  %39 = load ptr, ptr %9, align 8
  %40 = call noundef zeroext i1 @_ZN16CgroupController24read_numerical_key_valueEPKcS1_Pm(ptr noundef nonnull align 8 dereferenceable(8) %38, ptr noundef @.str.11, ptr noundef %39, ptr noundef %6)
  %41 = zext i1 %40 to i8
  store i8 %41, ptr %10, align 1
  %42 = load i8, ptr %10, align 1
  %43 = trunc i8 %42 to i1
  br i1 %43, label %45, label %44

44:                                               ; preds = %37
  store i64 -2, ptr %3, align 8
  br label %65

45:                                               ; preds = %37
  %46 = call noundef zeroext i1 @_ZN7LogImplILN6LogTag4typeE105ELS1_25ELS1_0ELS1_0ELS1_0ELS1_0EE8is_levelEN8LogLevel4typeE(i32 noundef 1)
  br i1 %46, label %48, label %47

47:                                               ; preds = %45
  br label %50

48:                                               ; preds = %45
  %49 = load i64, ptr %6, align 8
  call void (ptr, ...) @_ZN7LogImplILN6LogTag4typeE105ELS1_25ELS1_0ELS1_0ELS1_0ELS1_0EE5writeILN8LogLevel4typeE1EEEvPKcz(ptr noundef @.str.20, i64 noundef %49)
  br label %50

50:                                               ; preds = %48, %47
  %51 = load i64, ptr %6, align 8
  %52 = load i64, ptr %5, align 8
  %53 = icmp uge i64 %51, %52
  br i1 %53, label %54, label %59

54:                                               ; preds = %50
  %55 = call noundef zeroext i1 @_ZN7LogImplILN6LogTag4typeE105ELS1_25ELS1_0ELS1_0ELS1_0ELS1_0EE8is_levelEN8LogLevel4typeE(i32 noundef 1)
  br i1 %55, label %57, label %56

56:                                               ; preds = %54
  br label %58

57:                                               ; preds = %54
  call void (ptr, ...) @_ZN7LogImplILN6LogTag4typeE105ELS1_25ELS1_0ELS1_0ELS1_0ELS1_0EE5writeILN8LogLevel4typeE1EEEvPKcz(ptr noundef @.str.21)
  br label %58

58:                                               ; preds = %57, %56
  br label %61

59:                                               ; preds = %50
  %60 = load i64, ptr %6, align 8
  store i64 %60, ptr %3, align 8
  br label %65

61:                                               ; preds = %58
  br label %62

62:                                               ; preds = %61, %35
  store i64 -1, ptr %3, align 8
  br label %65

63:                                               ; preds = %27
  %64 = load i64, ptr %7, align 8
  store i64 %64, ptr %3, align 8
  br label %65

65:                                               ; preds = %63, %62, %59, %44, %21
  %66 = load i64, ptr %3, align 8
  ret i64 %66
}