; Function Attrs: mustprogress nounwind uwtable
define hidden noundef i64 @_ZN24CgroupV1MemoryController13read_mem_swapEm(ptr noundef nonnull align 8 dereferenceable(56) %0, i64 noundef %1) local_unnamed_addr #0 align 2 {
  %3 = alloca i64, align 8
  %4 = alloca i64, align 8
  %5 = getelementptr inbounds i8, ptr %0, i64 8
  %6 = call noundef zeroext i1 @_ZN16CgroupController11read_numberEPKcPm(ptr noundef nonnull align 8 dereferenceable(8) %5, ptr noundef nonnull @.str.15, ptr noundef nonnull %4) #7
  %7 = load volatile ptr, ptr getelementptr inbounds (i8, ptr @_ZN16LogTagSetMappingILN6LogTag4typeE105ELS1_25ELS1_0ELS1_0ELS1_0ELS1_0EE7_tagsetE, i64 48), align 8
  %.not11 = icmp eq ptr %7, null
  br i1 %6, label %10, label %8

8:                                                ; preds = %2
  br i1 %.not11, label %33, label %9

9:                                                ; preds = %8
  call void (ptr, ...) @_ZN7LogImplILN6LogTag4typeE105ELS1_25ELS1_0ELS1_0ELS1_0ELS1_0EE5writeILN8LogLevel4typeE1EEEvPKcz(ptr noundef nonnull @.str.16, i32 noundef -2)
  br label %33

10:                                               ; preds = %2
  br i1 %.not11, label %13, label %11

11:                                               ; preds = %10
  %12 = load i64, ptr %4, align 8
  call void (ptr, ...) @_ZN7LogImplILN6LogTag4typeE105ELS1_25ELS1_0ELS1_0ELS1_0ELS1_0EE5writeILN8LogLevel4typeE1EEEvPKcz(ptr noundef nonnull @.str.17, i64 noundef %12)
  br label %13

13:                                               ; preds = %10, %11
  %14 = load i64, ptr %4, align 8
  %.not = icmp ult i64 %14, %1
  br i1 %.not, label %33, label %15

15:                                               ; preds = %13
  %16 = load volatile ptr, ptr getelementptr inbounds (i8, ptr @_ZN16LogTagSetMappingILN6LogTag4typeE105ELS1_25ELS1_0ELS1_0ELS1_0ELS1_0EE7_tagsetE, i64 48), align 8
  %.not12 = icmp eq ptr %16, null
  br i1 %.not12, label %18, label %17

17:                                               ; preds = %15
  call void (ptr, ...) @_ZN7LogImplILN6LogTag4typeE105ELS1_25ELS1_0ELS1_0ELS1_0ELS1_0EE5writeILN8LogLevel4typeE1EEEvPKcz(ptr noundef nonnull @.str.18)
  br label %18

18:                                               ; preds = %15, %17
  %19 = getelementptr inbounds i8, ptr %0, i64 48
  %20 = load i8, ptr %19, align 8
  %21 = trunc i8 %20 to i1
  br i1 %21, label %22, label %33

22:                                               ; preds = %18
  %23 = call noundef zeroext i1 @_ZN16CgroupController24read_numerical_key_valueEPKcS1_Pm(ptr noundef nonnull align 8 dereferenceable(8) %5, ptr noundef nonnull @.str.11, ptr noundef nonnull @.str.19, ptr noundef nonnull %3) #7
  br i1 %23, label %24, label %33

24:                                               ; preds = %22
  %25 = load volatile ptr, ptr getelementptr inbounds (i8, ptr @_ZN16LogTagSetMappingILN6LogTag4typeE105ELS1_25ELS1_0ELS1_0ELS1_0ELS1_0EE7_tagsetE, i64 48), align 8
  %.not13 = icmp eq ptr %25, null
  br i1 %.not13, label %28, label %26

26:                                               ; preds = %24
  %27 = load i64, ptr %3, align 8
  call void (ptr, ...) @_ZN7LogImplILN6LogTag4typeE105ELS1_25ELS1_0ELS1_0ELS1_0ELS1_0EE5writeILN8LogLevel4typeE1EEEvPKcz(ptr noundef nonnull @.str.20, i64 noundef %27)
  br label %28

28:                                               ; preds = %24, %26
  %29 = load i64, ptr %3, align 8
  %.not9 = icmp ult i64 %29, %1
  br i1 %.not9, label %33, label %30

30:                                               ; preds = %28
  %31 = load volatile ptr, ptr getelementptr inbounds (i8, ptr @_ZN16LogTagSetMappingILN6LogTag4typeE105ELS1_25ELS1_0ELS1_0ELS1_0ELS1_0EE7_tagsetE, i64 48), align 8
  %.not14 = icmp eq ptr %31, null
  br i1 %.not14, label %33, label %32

32:                                               ; preds = %30
  call void (ptr, ...) @_ZN7LogImplILN6LogTag4typeE105ELS1_25ELS1_0ELS1_0ELS1_0ELS1_0EE5writeILN8LogLevel4typeE1EEEvPKcz(ptr noundef nonnull @.str.21)
  br label %33

33:                                               ; preds = %13, %18, %32, %30, %28, %22, %9, %8
  %.0 = phi i64 [ -2, %8 ], [ -2, %9 ], [ -2, %22 ], [ %29, %28 ], [ -1, %30 ], [ -1, %32 ], [ -1, %18 ], [ %14, %13 ]
  ret i64 %.0
}